target datalayout = "e-m:e-p270:32:32-p271:32:32-p272:64:64-i64:64-i128:128-f80:128-n8:16:32:64-S128"
target triple = "x86_64-pc-linux-gnu"

%struct.QMetaObject = type { %"struct.QMetaObject::Data" }
%"struct.QMetaObject::Data" = type { %"struct.QMetaObject::SuperData", ptr, ptr, ptr, ptr, ptr, ptr }
%"struct.QMetaObject::SuperData" = type { ptr }
%class.QObject = type { ptr, %class.QScopedPointer }
%class.QScopedPointer = type { ptr }
%class.CMainWindow = type { %class.QMainWindow, ptr, ptr, i32, i32, ptr, ptr, ptr, ptr, ptr, ptr, ptr, ptr, ptr, ptr, ptr, ptr, ptr, ptr, ptr, ptr, ptr, ptr, ptr, ptr, ptr, ptr, ptr, ptr, ptr, ptr, ptr }
%class.QMainWindow = type { %class.QWidget }
%class.QWidget = type { %class.QObject, %class.QPaintDevice.base, ptr }
%class.QPaintDevice.base = type <{ ptr, i16 }>

@_ZN13QMdiSubWindow16staticMetaObjectE = external global %struct.QMetaObject, align 8

; Function Attrs: mustprogress uwtable
define linkonce_odr noundef ptr @_ZNK11QMetaObject4castEP7QObject(ptr noundef nonnull align 8 dereferenceable(56) %0, ptr noundef %1) #0 comdat align 2 {
  %3 = alloca ptr, align 8
  %4 = alloca ptr, align 8
  store ptr %0, ptr %3, align 8, !tbaa !413
  store ptr %1, ptr %4, align 8, !tbaa !128
  %5 = load ptr, ptr %3, align 8
  %6 = load ptr, ptr %4, align 8, !tbaa !128
  %7 = call noundef ptr @_ZNK11QMetaObject4castEPK7QObject(ptr noundef nonnull align 8 dereferenceable(56) %5, ptr noundef %6)
  ret ptr %7
}

; Function Attrs: inlinehint mustprogress uwtable
define linkonce_odr noundef ptr @_Z12qobject_castIP13QMdiSubWindowET_P7QObject(ptr noundef %0) #6 comdat {
  %2 = alloca ptr, align 8
  store ptr %0, ptr %2, align 8, !tbaa !128
  %3 = load ptr, ptr %2, align 8, !tbaa !128
  %4 = call noundef ptr @_ZNK11QMetaObject4castEP7QObject(ptr noundef nonnull align 8 dereferenceable(56) @_ZN13QMdiSubWindow16staticMetaObjectE, ptr noundef %3)
  ret ptr %4
}

; Function Attrs: mustprogress uwtable
define void @_ZN11CMainWindow13activateChildEP7QWidget(ptr noundef nonnull align 8 dereferenceable(280) %0, ptr noundef %1) #0 align 2 {
  %3 = alloca ptr, align 8
  %4 = alloca ptr, align 8
  store ptr %0, ptr %3, align 8, !tbaa !21
  store ptr %1, ptr %4, align 8, !tbaa !68
  %5 = load ptr, ptr %3, align 8
  %6 = load ptr, ptr %4, align 8, !tbaa !68
  %7 = icmp ne ptr %6, null
  br i1 %7, label %9, label %8

8:                                                ; preds = %2
  br label %14

9:                                                ; preds = %2
  %10 = getelementptr inbounds nuw %class.CMainWindow, ptr %5, i32 0, i32 1
  %11 = load ptr, ptr %10, align 8, !tbaa !70
  %12 = load ptr, ptr %4, align 8, !tbaa !68
  %13 = call noundef ptr @_Z12qobject_castIP13QMdiSubWindowET_P7QObject(ptr noundef %12)
  call void @_ZN8QMdiArea18setActiveSubWindowEP13QMdiSubWindow(ptr noundef nonnull align 8 dereferenceable(40) %11, ptr noundef %13)
  br label %14

14:                                               ; preds = %9, %8
  ret void
}