; Function Attrs: mustprogress uwtable
define void @_ZN11CMainWindow13activateChildEP7QWidget(ptr noundef nonnull readonly align 8 captures(none) dereferenceable(280) %0, ptr noundef %1) local_unnamed_addr #0 align 2 {
  %.not = icmp eq ptr %1, null
  br i1 %.not, label %7, label %3

3:                                                ; preds = %2
  %4 = getelementptr inbounds nuw i8, ptr %0, i64 40
  %5 = load ptr, ptr %4, align 8, !tbaa !48
  %6 = tail call noundef ptr @_ZNK11QMetaObject4castEPK7QObject(ptr noundef nonnull align 8 dereferenceable(56) @_ZN13QMdiSubWindow16staticMetaObjectE, ptr noundef nonnull %1)
  tail call void @_ZN8QMdiArea18setActiveSubWindowEP13QMdiSubWindow(ptr noundef nonnull align 8 dereferenceable(40) %5, ptr noundef %6)
  br label %7

7:                                                ; preds = %2, %3
  ret void
}